target datalayout = "e-m:e-p270:32:32-p271:32:32-p272:64:64-i64:64-i128:128-f80:128-n8:16:32:64-S128"
target triple = "x86_64-pc-linux-gnu"

%struct.Agobj_s = type { %struct.Agtag_s, ptr }
%struct.Agtag_s = type { i32, i64 }

@.str.121 = private unnamed_addr constant [1 x i8] zeroinitializer, align 1

; Function Attrs: nounwind uwtable
define internal i32 @setattr(ptr noundef %0, ptr noundef %1, ptr noundef %2) #0 {
  %4 = alloca ptr, align 8
  %5 = alloca ptr, align 8
  %6 = alloca ptr, align 8
  %7 = alloca ptr, align 8
  store ptr %0, ptr %4, align 8, !tbaa !98
  store ptr %1, ptr %5, align 8, !tbaa !7
  store ptr %2, ptr %6, align 8, !tbaa !7
  call void @llvm.lifetime.start.p0(i64 8, ptr %7) #16
  %8 = load ptr, ptr %4, align 8, !tbaa !98
  %9 = load ptr, ptr %5, align 8, !tbaa !7
  %10 = call ptr @agattrsym(ptr noundef %8, ptr noundef %9)
  store ptr %10, ptr %7, align 8, !tbaa !119
  %11 = load ptr, ptr %7, align 8, !tbaa !119
  %12 = icmp ne ptr %11, null
  br i1 %12, label %23, label %13

13:                                               ; preds = %3
  %14 = load ptr, ptr %4, align 8, !tbaa !98
  %15 = call ptr @agraphof(ptr noundef %14)
  %16 = call ptr @agroot(ptr noundef %15)
  %17 = load ptr, ptr %4, align 8, !tbaa !98
  %18 = getelementptr inbounds nuw %struct.Agobj_s, ptr %17, i32 0, i32 0
  %19 = load i32, ptr %18, align 8
  %20 = and i32 %19, 3
  %21 = load ptr, ptr %5, align 8, !tbaa !7
  %22 = call ptr @agattr(ptr noundef %16, i32 noundef %20, ptr noundef %21, ptr noundef @.str.121)
  store ptr %22, ptr %7, align 8, !tbaa !119
  br label %23

23:                                               ; preds = %13, %3
  %24 = load ptr, ptr %4, align 8, !tbaa !98
  %25 = load ptr, ptr %7, align 8, !tbaa !119
  %26 = load ptr, ptr %6, align 8, !tbaa !7
  %27 = call i32 @agxset(ptr noundef %24, ptr noundef %25, ptr noundef %26)
  call void @llvm.lifetime.end.p0(i64 8, ptr %7) #16
  ret i32 %27
}