; Function Attrs: nounwind uwtable
define internal fastcc i32 @setattr(ptr noundef nonnull %0, ptr noundef %1, ptr noundef %2) unnamed_addr #0 {
  %4 = tail call ptr @agattrsym(ptr noundef nonnull %0, ptr noundef %1) #25
  %.not = icmp eq ptr %4, null
  br i1 %.not, label %5, label %11

5:                                                ; preds = %3
  %6 = tail call ptr @agraphof(ptr noundef nonnull %0) #25
  %7 = tail call ptr @agroot(ptr noundef %6) #25
  %8 = load i32, ptr %0, align 8
  %9 = and i32 %8, 3
  %10 = tail call ptr @agattr(ptr noundef %7, i32 noundef %9, ptr noundef %1, ptr noundef nonnull @.str.121) #25
  br label %11

11:                                               ; preds = %5, %3
  %.0 = phi ptr [ %4, %3 ], [ %10, %5 ]
  %12 = tail call i32 @agxset(ptr noundef nonnull %0, ptr noundef %.0, ptr noundef %2) #25
  ret i32 %12
}